target datalayout = "e-m:e-p270:32:32-p271:32:32-p272:64:64-i64:64-i128:128-f80:128-n8:16:32:64-S128"
target triple = "x86_64-pc-linux-gnu"

%struct.vec_t = type { ptr, i32 }

; Function Attrs: nounwind null_pointer_is_valid sspstrong uwtable
define zeroext i16 @ip_checksum(ptr noundef %0, i32 noundef %1) #0 {
  %3 = alloca ptr, align 8
  %4 = alloca i32, align 4
  %5 = alloca [1 x %struct.vec_t], align 16
  store ptr %0, ptr %3, align 8
  store i32 %1, ptr %4, align 4
  call void @llvm.lifetime.start.p0(i64 16, ptr %5) #4
  br label %6

6:                                                ; preds = %2
  %7 = load ptr, ptr %3, align 8
  %8 = getelementptr [1 x %struct.vec_t], ptr %5, i64 0, i64 0
  %9 = getelementptr inbounds nuw %struct.vec_t, ptr %8, i32 0, i32 0
  store ptr %7, ptr %9, align 16
  %10 = load i32, ptr %4, align 4
  %11 = getelementptr [1 x %struct.vec_t], ptr %5, i64 0, i64 0
  %12 = getelementptr inbounds nuw %struct.vec_t, ptr %11, i32 0, i32 1
  store i32 %10, ptr %12, align 8
  br label %13

13:                                               ; preds = %6
  br label %14

14:                                               ; preds = %13
  %15 = getelementptr [1 x %struct.vec_t], ptr %5, i64 0, i64 0
  %16 = call i32 @in_cksum_ret_partial(ptr noundef %15, i32 noundef 1, ptr noundef null)
  %17 = trunc i32 %16 to i16
  call void @llvm.lifetime.end.p0(i64 16, ptr %5) #4
  ret i16 %17
}