; Function Attrs: nofree norecurse nosync nounwind null_pointer_is_valid sspstrong memory(readwrite, inaccessiblemem: none) uwtable
define zeroext i16 @ip_checksum(ptr noundef %0, i32 noundef %1) local_unnamed_addr #2 {
  %3 = alloca [1 x %struct.vec_t], align 16
  call void @llvm.lifetime.start.p0(i64 16, ptr nonnull %3) #7
  store ptr %0, ptr %3, align 16
  %4 = getelementptr inbounds nuw i8, ptr %3, i64 8
  store i32 %1, ptr %4, align 8
  %5 = call i32 @in_cksum_ret_partial(ptr noundef nonnull %3, i32 noundef 1, ptr noundef null)
  %6 = trunc nuw i32 %5 to i16
  call void @llvm.lifetime.end.p0(i64 16, ptr nonnull %3) #7
  ret i16 %6
}